target datalayout = "e-m:e-p270:32:32-p271:32:32-p272:64:64-i64:64-i128:128-f80:128-n8:16:32:64-S128"
target triple = "x86_64-pc-linux-gnu"

%struct.stb_vorbis = type { i32, i32, i32, i32, i32, ptr, i32, ptr, ptr, i32, i32, ptr, ptr, ptr, i32, i8, i32, %struct.ProbedPage, %struct.ProbedPage, %struct.stb_vorbis_alloc, i32, i32, i32, i32, [2 x i32], i32, i32, i32, ptr, i32, [64 x i16], ptr, i32, [64 x i16], ptr, i32, ptr, i32, [64 x %struct.Mode], i32, [16 x ptr], [16 x ptr], [16 x ptr], i32, [16 x ptr], i32, i32, [2 x ptr], [2 x ptr], [2 x ptr], [2 x ptr], [2 x ptr], i32, i32, i32, [255 x i8], i8, i8, i8, i32, i32, i32, i32, i32, i32, i32, i32, i32, i32, i32, [4 x %struct.CRCscan], i32, i32 }
%struct.ProbedPage = type { i32, i32, i32 }
%struct.stb_vorbis_alloc = type { ptr, i32 }
%struct.Mode = type { i8, i8, i16, i16 }
%struct.CRCscan = type { i32, i32, i32, i32, i32 }

; Function Attrs: nounwind uwtable
define ptr @setup_temp_malloc(ptr noundef %0, i32 noundef %1) #0 {
  %3 = alloca ptr, align 8
  %4 = alloca ptr, align 8
  %5 = alloca i32, align 4
  store ptr %0, ptr %4, align 8, !tbaa !3
  store i32 %1, ptr %5, align 4, !tbaa !8
  %6 = load i32, ptr %5, align 4, !tbaa !8
  %7 = add nsw i32 %6, 7
  %8 = and i32 %7, -8
  store i32 %8, ptr %5, align 4, !tbaa !8
  %9 = load ptr, ptr %4, align 8, !tbaa !3
  %10 = getelementptr inbounds nuw %struct.stb_vorbis, ptr %9, i32 0, i32 19
  %11 = getelementptr inbounds nuw %struct.stb_vorbis_alloc, ptr %10, i32 0, i32 0
  %12 = load ptr, ptr %11, align 8, !tbaa !23
  %13 = icmp ne ptr %12, null
  br i1 %13, label %14, label %40

14:                                               ; preds = %2
  %15 = load ptr, ptr %4, align 8, !tbaa !3
  %16 = getelementptr inbounds nuw %struct.stb_vorbis, ptr %15, i32 0, i32 21
  %17 = load i32, ptr %16, align 4, !tbaa !25
  %18 = load i32, ptr %5, align 4, !tbaa !8
  %19 = sub nsw i32 %17, %18
  %20 = load ptr, ptr %4, align 8, !tbaa !3
  %21 = getelementptr inbounds nuw %struct.stb_vorbis, ptr %20, i32 0, i32 20
  %22 = load i32, ptr %21, align 8, !tbaa !24
  %23 = icmp slt i32 %19, %22
  br i1 %23, label %24, label %25

24:                                               ; preds = %14
  store ptr null, ptr %3, align 8
  br label %44

25:                                               ; preds = %14
  %26 = load i32, ptr %5, align 4, !tbaa !8
  %27 = load ptr, ptr %4, align 8, !tbaa !3
  %28 = getelementptr inbounds nuw %struct.stb_vorbis, ptr %27, i32 0, i32 21
  %29 = load i32, ptr %28, align 4, !tbaa !25
  %30 = sub nsw i32 %29, %26
  store i32 %30, ptr %28, align 4, !tbaa !25
  %31 = load ptr, ptr %4, align 8, !tbaa !3
  %32 = getelementptr inbounds nuw %struct.stb_vorbis, ptr %31, i32 0, i32 19
  %33 = getelementptr inbounds nuw %struct.stb_vorbis_alloc, ptr %32, i32 0, i32 0
  %34 = load ptr, ptr %33, align 8, !tbaa !23
  %35 = load ptr, ptr %4, align 8, !tbaa !3
  %36 = getelementptr inbounds nuw %struct.stb_vorbis, ptr %35, i32 0, i32 21
  %37 = load i32, ptr %36, align 4, !tbaa !25
  %38 = sext i32 %37 to i64
  %39 = getelementptr inbounds i8, ptr %34, i64 %38
  store ptr %39, ptr %3, align 8
  br label %44

40:                                               ; preds = %2
  %41 = load i32, ptr %5, align 4, !tbaa !8
  %42 = sext i32 %41 to i64
  %43 = call noalias ptr @malloc(i64 noundef %42) #12
  store ptr %43, ptr %3, align 8
  br label %44

44:                                               ; preds = %40, %25, %24
  %45 = load ptr, ptr %3, align 8
  ret ptr %45
}