; Function Attrs: mustprogress nofree nounwind willreturn memory(argmem: readwrite, inaccessiblemem: readwrite) uwtable
define ptr @setup_temp_malloc(ptr noundef captures(none) %0, i32 noundef %1) local_unnamed_addr #3 {
  %3 = add nsw i32 %1, 7
  %4 = and i32 %3, -8
  %5 = getelementptr inbounds nuw i8, ptr %0, i64 128
  %6 = load ptr, ptr %5, align 8, !tbaa !17
  %.not = icmp eq ptr %6, null
  br i1 %.not, label %17, label %7

7:                                                ; preds = %2
  %8 = getelementptr inbounds nuw i8, ptr %0, i64 148
  %9 = load i32, ptr %8, align 4, !tbaa !19
  %10 = sub nsw i32 %9, %4
  %11 = getelementptr inbounds nuw i8, ptr %0, i64 144
  %12 = load i32, ptr %11, align 8, !tbaa !18
  %13 = icmp slt i32 %10, %12
  br i1 %13, label %20, label %14

14:                                               ; preds = %7
  store i32 %10, ptr %8, align 4, !tbaa !19
  %15 = sext i32 %10 to i64
  %16 = getelementptr inbounds i8, ptr %6, i64 %15
  br label %20

17:                                               ; preds = %2
  %18 = sext i32 %4 to i64
  %19 = tail call noalias ptr @malloc(i64 noundef %18) #34
  br label %20

20:                                               ; preds = %7, %17, %14
  %.0 = phi ptr [ %16, %14 ], [ %19, %17 ], [ null, %7 ]
  ret ptr %.0
}